target datalayout = "e-m:e-p270:32:32-p271:32:32-p272:64:64-i64:64-i128:128-f80:128-n8:16:32:64-S128"
target triple = "x86_64-pc-linux-gnu"

%struct.Vec_Int_t_ = type { i32, i32, ptr }

@.str.51 = private unnamed_addr constant [40 x i8] c"Enumerating solutions did not succeed.\0A\00", align 1

; Function Attrs: inlinehint nounwind uwtable
define internal void @Vec_IntFree(ptr noundef %0) #2 {
  %2 = alloca ptr, align 8
  store ptr %0, ptr %2, align 8, !tbaa !10
  %3 = load ptr, ptr %2, align 8, !tbaa !10
  %4 = getelementptr inbounds nuw %struct.Vec_Int_t_, ptr %3, i32 0, i32 2
  %5 = load ptr, ptr %4, align 8, !tbaa !17
  %6 = icmp ne ptr %5, null
  br i1 %6, label %7, label %13

7:                                                ; preds = %1
  %8 = load ptr, ptr %2, align 8, !tbaa !10
  %9 = getelementptr inbounds nuw %struct.Vec_Int_t_, ptr %8, i32 0, i32 2
  %10 = load ptr, ptr %9, align 8, !tbaa !17
  call void @free(ptr noundef %10) #14
  %11 = load ptr, ptr %2, align 8, !tbaa !10
  %12 = getelementptr inbounds nuw %struct.Vec_Int_t_, ptr %11, i32 0, i32 2
  store ptr null, ptr %12, align 8, !tbaa !17
  br label %14

13:                                               ; preds = %1
  br label %14

14:                                               ; preds = %13, %7
  %15 = load ptr, ptr %2, align 8, !tbaa !10
  %16 = icmp ne ptr %15, null
  br i1 %16, label %17, label %19

17:                                               ; preds = %14
  %18 = load ptr, ptr %2, align 8, !tbaa !10
  call void @free(ptr noundef %18) #14
  store ptr null, ptr %2, align 8, !tbaa !10
  br label %20

19:                                               ; preds = %14
  br label %20

20:                                               ; preds = %19, %17
  ret void
}

; Function Attrs: inlinehint nounwind uwtable
define internal i32 @Vec_IntSize(ptr noundef %0) #2 {
  %2 = alloca ptr, align 8
  store ptr %0, ptr %2, align 8, !tbaa !10
  %3 = load ptr, ptr %2, align 8, !tbaa !10
  %4 = getelementptr inbounds nuw %struct.Vec_Int_t_, ptr %3, i32 0, i32 1
  %5 = load i32, ptr %4, align 4, !tbaa !14
  ret i32 %5
}

; Function Attrs: nounwind uwtable
define void @Gia_ManGenRel2(ptr noundef %0, ptr noundef %1, i32 noundef %2, ptr noundef %3, i32 noundef %4) #0 {
  %6 = alloca ptr, align 8
  %7 = alloca ptr, align 8
  %8 = alloca i32, align 4
  %9 = alloca ptr, align 8
  %10 = alloca i32, align 4
  %11 = alloca ptr, align 8
  %12 = alloca i32, align 4
  store ptr %0, ptr %6, align 8, !tbaa !20
  store ptr %1, ptr %7, align 8, !tbaa !10
  store i32 %2, ptr %8, align 4, !tbaa !8
  store ptr %3, ptr %9, align 8, !tbaa !3
  store i32 %4, ptr %10, align 4, !tbaa !8
  call void @llvm.lifetime.start.p0(i64 8, ptr %11) #14
  %13 = load ptr, ptr %6, align 8, !tbaa !20
  %14 = load ptr, ptr %7, align 8, !tbaa !10
  %15 = load i32, ptr %8, align 4, !tbaa !8
  %16 = load i32, ptr %10, align 4, !tbaa !8
  %17 = call ptr @Gia_ManGenCombs(ptr noundef %13, ptr noundef %14, i32 noundef %15, i32 noundef %16)
  store ptr %17, ptr %11, align 8, !tbaa !10
  %18 = load ptr, ptr %11, align 8, !tbaa !10
  %19 = icmp eq ptr %18, null
  br i1 %19, label %20, label %22

20:                                               ; preds = %5
  %21 = call i32 (ptr, ...) @printf(ptr noundef @.str.51)
  store i32 1, ptr %12, align 4
  br label %31

22:                                               ; preds = %5
  %23 = load ptr, ptr %11, align 8, !tbaa !10
  %24 = load i32, ptr %8, align 4, !tbaa !8
  %25 = load ptr, ptr %7, align 8, !tbaa !10
  %26 = call i32 @Vec_IntSize(ptr noundef %25)
  %27 = load i32, ptr %8, align 4, !tbaa !8
  %28 = sub nsw i32 %26, %27
  %29 = load ptr, ptr %9, align 8, !tbaa !3
  call void @Gia_ManGenWriteRel(ptr noundef %23, i32 noundef %24, i32 noundef %28, ptr noundef %29)
  %30 = load ptr, ptr %11, align 8, !tbaa !10
  call void @Vec_IntFree(ptr noundef %30)
  store i32 0, ptr %12, align 4
  br label %31

31:                                               ; preds = %22, %20
  call void @llvm.lifetime.end.p0(i64 8, ptr %11) #14
  %32 = load i32, ptr %12, align 4
  switch i32 %32, label %34 [
    i32 0, label %33
    i32 1, label %33
  ]

33:                                               ; preds = %31, %31
  ret void

34:                                               ; preds = %31
  unreachable
}