; Function Attrs: nounwind uwtable
define void @Gia_ManGenRel2(ptr noundef %0, ptr noundef readonly captures(none) %1, i32 noundef %2, ptr noundef %3, i32 noundef %4) local_unnamed_addr #0 {
  %6 = tail call ptr @Gia_ManGenCombs(ptr noundef %0, ptr noundef %1, i32 noundef %2, i32 noundef %4)
  %7 = icmp eq ptr %6, null
  br i1 %7, label %8, label %9

8:                                                ; preds = %5
  %puts = tail call i32 @puts(ptr nonnull dereferenceable(1) @str.3)
  br label %15

9:                                                ; preds = %5
  %10 = getelementptr i8, ptr %1, i64 4
  %.val = load i32, ptr %10, align 4, !tbaa !11
  %11 = sub nsw i32 %.val, %2
  tail call void @Gia_ManGenWriteRel(ptr noundef nonnull %6, i32 noundef %2, i32 noundef %11, ptr noundef %3)
  %12 = getelementptr inbounds nuw i8, ptr %6, i64 8
  %13 = load ptr, ptr %12, align 8, !tbaa !10
  %.not.i = icmp eq ptr %13, null
  br i1 %.not.i, label %Vec_IntFree.exit, label %14

14:                                               ; preds = %9
  tail call void @free(ptr noundef nonnull %13) #29
  br label %Vec_IntFree.exit

Vec_IntFree.exit:                                 ; preds = %9, %14
  tail call void @free(ptr noundef nonnull %6) #29
  br label %15

15:                                               ; preds = %Vec_IntFree.exit, %8
  ret void
}